target datalayout = "e-m:e-p270:32:32-p271:32:32-p272:64:64-i64:64-i128:128-f80:128-n8:16:32:64-S128"
target triple = "x86_64-unknown-linux-gnu"

%struct.Visitor = type { ptr, ptr, ptr, ptr, ptr, ptr, ptr, ptr, ptr, ptr, ptr, ptr, ptr, ptr, ptr, ptr, ptr, ptr, ptr, ptr, i32, %struct.CompatPolicy, ptr, ptr }
%struct.CompatPolicy = type { i8, i32, i8, i32, i8, i32, i8, i32 }
%struct.timeval = type { i64, i64 }

@.str.1 = private unnamed_addr constant [31 x i8] c"../qemu/qapi/qapi-visit-core.c\00", align 1
@.str.7 = private unnamed_addr constant [36 x i8] c"tail && size >= sizeof(GenericList)\00", align 1
@__PRETTY_FUNCTION__.visit_next_list = private unnamed_addr constant [63 x i8] c"GenericList *visit_next_list(Visitor *, GenericList *, size_t)\00", align 1
@trace_events_enabled_count = external global i32, align 4
@message_with_timestamp = external global i8, align 1
@qemu_loglevel = external global i32, align 4
@_TRACE_VISIT_NEXT_LIST_DSTATE = external global i16, align 2
@.str.31 = private unnamed_addr constant [52 x i8] c"%d@%zu.%06zu:visit_next_list v=%p tail=%p size=%zu\0A\00", align 1
@.str.32 = private unnamed_addr constant [39 x i8] c"visit_next_list v=%p tail=%p size=%zu\0A\00", align 1

; Function Attrs: nounwind sspstrong uwtable
define internal zeroext i1 @qemu_loglevel_mask(i32 noundef %mask) #0 {
entry:
  %mask.addr = alloca i32, align 4
  store i32 %mask, ptr %mask.addr, align 4
  %0 = load i32, ptr @qemu_loglevel, align 4
  %1 = load i32, ptr %mask.addr, align 4
  %and = and i32 %0, %1
  %cmp = icmp ne i32 %and, 0
  ret i1 %cmp
}

; Function Attrs: nounwind sspstrong uwtable
define internal void @_nocheck__trace_visit_next_list(ptr noundef %v, ptr noundef %tail, i64 noundef %size) #0 {
entry:
  %v.addr = alloca ptr, align 8
  %tail.addr = alloca ptr, align 8
  %size.addr = alloca i64, align 8
  %_now = alloca %struct.timeval, align 8
  store ptr %v, ptr %v.addr, align 8
  store ptr %tail, ptr %tail.addr, align 8
  store i64 %size, ptr %size.addr, align 8
  %0 = load i32, ptr @trace_events_enabled_count, align 4
  %tobool = icmp ne i32 %0, 0
  %lnot = xor i1 %tobool, true
  %lnot1 = xor i1 %lnot, true
  %lnot.ext = zext i1 %lnot1 to i32
  %conv = sext i32 %lnot.ext to i64
  %tobool2 = icmp ne i64 %conv, 0
  br i1 %tobool2, label %land.lhs.true, label %if.end11

land.lhs.true:                                    ; preds = %entry
  %1 = load i16, ptr @_TRACE_VISIT_NEXT_LIST_DSTATE, align 2
  %conv3 = zext i16 %1 to i32
  %tobool4 = icmp ne i32 %conv3, 0
  br i1 %tobool4, label %land.lhs.true5, label %if.end11

land.lhs.true5:                                   ; preds = %land.lhs.true
  %call = call zeroext i1 @qemu_loglevel_mask(i32 noundef 32768)
  br i1 %call, label %if.then, label %if.end11

if.then:                                          ; preds = %land.lhs.true5
  %2 = load i8, ptr @message_with_timestamp, align 1
  %tobool7 = trunc i8 %2 to i1
  br i1 %tobool7, label %if.then8, label %if.else

if.then8:                                         ; preds = %if.then
  %call9 = call i32 @gettimeofday(ptr noundef %_now, ptr noundef null) #6
  %call10 = call i32 @qemu_get_thread_id()
  %tv_sec = getelementptr inbounds %struct.timeval, ptr %_now, i32 0, i32 0
  %3 = load i64, ptr %tv_sec, align 8
  %tv_usec = getelementptr inbounds %struct.timeval, ptr %_now, i32 0, i32 1
  %4 = load i64, ptr %tv_usec, align 8
  %5 = load ptr, ptr %v.addr, align 8
  %6 = load ptr, ptr %tail.addr, align 8
  %7 = load i64, ptr %size.addr, align 8
  call void (ptr, ...) @qemu_log(ptr noundef @.str.31, i32 noundef %call10, i64 noundef %3, i64 noundef %4, ptr noundef %5, ptr noundef %6, i64 noundef %7)
  br label %if.end

if.else:                                          ; preds = %if.then
  %8 = load ptr, ptr %v.addr, align 8
  %9 = load ptr, ptr %tail.addr, align 8
  %10 = load i64, ptr %size.addr, align 8
  call void (ptr, ...) @qemu_log(ptr noundef @.str.32, ptr noundef %8, ptr noundef %9, i64 noundef %10)
  br label %if.end

if.end:                                           ; preds = %if.else, %if.then8
  br label %if.end11

if.end11:                                         ; preds = %if.end, %land.lhs.true5, %land.lhs.true, %entry
  ret void
}

; Function Attrs: nounwind sspstrong uwtable
define internal void @trace_visit_next_list(ptr noundef %v, ptr noundef %tail, i64 noundef %size) #0 {
entry:
  %v.addr = alloca ptr, align 8
  %tail.addr = alloca ptr, align 8
  %size.addr = alloca i64, align 8
  store ptr %v, ptr %v.addr, align 8
  store ptr %tail, ptr %tail.addr, align 8
  store i64 %size, ptr %size.addr, align 8
  %0 = load ptr, ptr %v.addr, align 8
  %1 = load ptr, ptr %tail.addr, align 8
  %2 = load i64, ptr %size.addr, align 8
  call void @_nocheck__trace_visit_next_list(ptr noundef %0, ptr noundef %1, i64 noundef %2)
  ret void
}

; Function Attrs: nounwind sspstrong uwtable
define dso_local ptr @visit_next_list(ptr noundef %v, ptr noundef %tail, i64 noundef %size) #0 {
entry:
  %v.addr = alloca ptr, align 8
  %tail.addr = alloca ptr, align 8
  %size.addr = alloca i64, align 8
  store ptr %v, ptr %v.addr, align 8
  store ptr %tail, ptr %tail.addr, align 8
  store i64 %size, ptr %size.addr, align 8
  %0 = load ptr, ptr %tail.addr, align 8
  %tobool = icmp ne ptr %0, null
  br i1 %tobool, label %land.lhs.true, label %if.else

land.lhs.true:                                    ; preds = %entry
  %1 = load i64, ptr %size.addr, align 8
  %cmp = icmp uge i64 %1, 8
  br i1 %cmp, label %if.then, label %if.else

if.then:                                          ; preds = %land.lhs.true
  br label %if.end

if.else:                                          ; preds = %land.lhs.true, %entry
  call void @__assert_fail(ptr noundef @.str.7, ptr noundef @.str.1, i32 noundef 89, ptr noundef @__PRETTY_FUNCTION__.visit_next_list) #5
  unreachable

if.end:                                           ; preds = %if.then
  %2 = load ptr, ptr %v.addr, align 8
  %3 = load ptr, ptr %tail.addr, align 8
  %4 = load i64, ptr %size.addr, align 8
  call void @trace_visit_next_list(ptr noundef %2, ptr noundef %3, i64 noundef %4)
  %5 = load ptr, ptr %v.addr, align 8
  %next_list = getelementptr inbounds %struct.Visitor, ptr %5, i32 0, i32 4
  %6 = load ptr, ptr %next_list, align 8
  %7 = load ptr, ptr %v.addr, align 8
  %8 = load ptr, ptr %tail.addr, align 8
  %9 = load i64, ptr %size.addr, align 8
  %call = call ptr %6(ptr noundef %7, ptr noundef %8, i64 noundef %9)
  ret ptr %call
}